target datalayout = "e-m:e-p270:32:32-p271:32:32-p272:64:64-i64:64-i128:128-f80:128-n8:16:32:64-S128"
target triple = "x86_64-pc-linux-gnu"

%struct.stat = type { i64, i64, i64, i32, i32, i32, i32, i64, i64, i64, i64, %struct.timespec, %struct.timespec, %struct.timespec, [3 x i64] }
%struct.timespec = type { i64, i64 }
%struct.RBasic = type { i64, i64 }
%struct.RString = type { %struct.RBasic, i64, %union.anon.0 }
%union.anon.0 = type { %struct.anon.1 }
%struct.anon.1 = type { ptr, %union.anon.2 }
%union.anon.2 = type { i64 }
%struct.no_gvl_stat_data = type { ptr, %union.anon }
%union.anon = type { ptr }
%struct.anon.3 = type { [1 x i8] }

@__func__.rb_check_realpath_internal = private unnamed_addr constant [27 x i8] c"rb_check_realpath_internal\00", align 1

; Function Attrs: inlinehint nounwind sspstrong willreturn memory(read) uwtable
define internal i64 @RB_FL_TEST_RAW(i64 noundef %0, i64 noundef %1) #3 {
  %3 = alloca i64, align 8
  %4 = alloca i64, align 8
  store i64 %0, ptr %3, align 8, !tbaa !7
  store i64 %1, ptr %4, align 8, !tbaa !7
  %5 = load i64, ptr %3, align 8, !tbaa !7
  %6 = inttoptr i64 %5 to ptr
  %7 = getelementptr inbounds nuw %struct.RBasic, ptr %6, i32 0, i32 0
  %8 = load i64, ptr %7, align 8, !tbaa !170
  %9 = load i64, ptr %4, align 8, !tbaa !7
  %10 = and i64 %8, %9
  ret i64 %10
}

; Function Attrs: inlinehint nounwind sspstrong willreturn memory(read) uwtable
define internal i64 @RSTRING_LEN(i64 noundef %0) #3 {
  %2 = alloca i64, align 8
  store i64 %0, ptr %2, align 8, !tbaa !7
  %3 = load i64, ptr %2, align 8, !tbaa !7
  %4 = inttoptr i64 %3 to ptr
  %5 = getelementptr inbounds nuw %struct.RString, ptr %4, i32 0, i32 1
  %6 = load i64, ptr %5, align 8, !tbaa !81
  ret i64 %6
}

; Function Attrs: inlinehint nounwind sspstrong willreturn memory(read) uwtable
define internal zeroext i1 @RB_FL_ANY_RAW(i64 noundef %0, i64 noundef %1) #3 {
  %3 = alloca i64, align 8
  %4 = alloca i64, align 8
  store i64 %0, ptr %3, align 8, !tbaa !7
  store i64 %1, ptr %4, align 8, !tbaa !7
  %5 = load i64, ptr %3, align 8, !tbaa !7
  %6 = load i64, ptr %4, align 8, !tbaa !7
  %7 = call i64 @RB_FL_TEST_RAW(i64 noundef %5, i64 noundef %6) #25
  %8 = icmp ne i64 %7, 0
  ret i1 %8
}

; Function Attrs: inlinehint nounwind sspstrong willreturn memory(read, argmem: readwrite) uwtable
define internal void @rbimpl_rstring_getmem(ptr dead_on_unwind noalias writable sret(%struct.RString) align 8 %0, i64 noundef %1) #18 {
  %3 = alloca i64, align 8
  store i64 %1, ptr %3, align 8, !tbaa !7
  %4 = load i64, ptr %3, align 8, !tbaa !7
  %5 = call zeroext i1 @RB_FL_ANY_RAW(i64 noundef %4, i64 noundef 8192) #25
  br i1 %5, label %6, label %9

6:                                                ; preds = %2
  %7 = load i64, ptr %3, align 8, !tbaa !7
  %8 = inttoptr i64 %7 to ptr
  call void @llvm.memcpy.p0.p0.i64(ptr align 8 %0, ptr align 8 %8, i64 40, i1 false), !tbaa.struct !192
  br label %20

9:                                                ; preds = %2
  %10 = load i64, ptr %3, align 8, !tbaa !7
  %11 = call i64 @RSTRING_LEN(i64 noundef %10) #25
  %12 = getelementptr inbounds nuw %struct.RString, ptr %0, i32 0, i32 1
  store i64 %11, ptr %12, align 8, !tbaa !81
  %13 = load i64, ptr %3, align 8, !tbaa !7
  %14 = inttoptr i64 %13 to ptr
  %15 = getelementptr inbounds nuw %struct.RString, ptr %14, i32 0, i32 2
  %16 = getelementptr inbounds nuw %struct.anon.3, ptr %15, i32 0, i32 0
  %17 = getelementptr inbounds [1 x i8], ptr %16, i64 0, i64 0
  %18 = getelementptr inbounds nuw %struct.RString, ptr %0, i32 0, i32 2
  %19 = getelementptr inbounds nuw %struct.anon.1, ptr %18, i32 0, i32 0
  store ptr %17, ptr %19, align 8, !tbaa !27
  br label %20

20:                                               ; preds = %9, %6
  ret void
}

; Function Attrs: inlinehint nounwind sspstrong uwtable
define internal zeroext i1 @is_broken_string(i64 noundef %0) #8 {
  %2 = alloca i64, align 8
  store i64 %0, ptr %2, align 8, !tbaa !7
  %3 = load i64, ptr %2, align 8, !tbaa !7
  %4 = call i32 @rb_enc_str_coderange(i64 noundef %3)
  %5 = icmp eq i32 %4, 3145728
  ret i1 %5
}

; Function Attrs: nounwind sspstrong uwtable
define internal i32 @stat_without_gvl(ptr noundef %0, ptr noundef %1) #0 {
  %3 = alloca ptr, align 8
  %4 = alloca ptr, align 8
  %5 = alloca %struct.no_gvl_stat_data, align 8
  store ptr %0, ptr %3, align 8, !tbaa !16
  store ptr %1, ptr %4, align 8, !tbaa !22
  call void @llvm.lifetime.start.p0(i64 16, ptr %5) #24
  %6 = load ptr, ptr %3, align 8, !tbaa !16
  %7 = getelementptr inbounds nuw %struct.no_gvl_stat_data, ptr %5, i32 0, i32 1
  store ptr %6, ptr %7, align 8, !tbaa !27
  %8 = load ptr, ptr %4, align 8, !tbaa !22
  %9 = getelementptr inbounds nuw %struct.no_gvl_stat_data, ptr %5, i32 0, i32 0
  store ptr %8, ptr %9, align 8, !tbaa !178
  %10 = call ptr @rb_nogvl(ptr noundef @no_gvl_stat, ptr noundef %5, ptr noundef inttoptr (i64 -1 to ptr), ptr noundef null, i32 noundef 4)
  %11 = ptrtoint ptr %10 to i64
  %12 = trunc i64 %11 to i32
  call void @llvm.lifetime.end.p0(i64 16, ptr %5) #24
  ret i32 %12
}

; Function Attrs: nounwind sspstrong uwtable
define internal i64 @ospath_new(ptr noundef %0, i64 noundef %1, ptr noundef %2) #0 {
  %4 = alloca ptr, align 8
  %5 = alloca i64, align 8
  %6 = alloca ptr, align 8
  store ptr %0, ptr %4, align 8, !tbaa !16
  store i64 %1, ptr %5, align 8, !tbaa !7
  store ptr %2, ptr %6, align 8, !tbaa !20
  br i1 false, label %7, label %10

7:                                                ; preds = %3
  %8 = load i64, ptr %5, align 8, !tbaa !7
  %9 = call i1 @llvm.is.constant.i64(i64 %8)
  br label %10

10:                                               ; preds = %7, %3
  %11 = phi i1 [ false, %3 ], [ %9, %7 ]
  %12 = select i1 %11, ptr @rb_enc_str_new_static, ptr @rb_enc_str_new
  %13 = load ptr, ptr %4, align 8, !tbaa !16
  %14 = load i64, ptr %5, align 8, !tbaa !7
  %15 = load ptr, ptr %6, align 8, !tbaa !20
  %16 = call i64 %12(ptr noundef %13, i64 noundef %14, ptr noundef %15)
  ret i64 %16
}

; Function Attrs: nounwind sspstrong uwtable
define internal i64 @rb_file_exist_p(i64 noundef %0, i64 noundef %1) #0 {
  %3 = alloca i64, align 8
  %4 = alloca i64, align 8
  %5 = alloca i64, align 8
  %6 = alloca %struct.stat, align 8
  %7 = alloca i32, align 4
  store i64 %0, ptr %4, align 8, !tbaa !7
  store i64 %1, ptr %5, align 8, !tbaa !7
  call void @llvm.lifetime.start.p0(i64 144, ptr %6) #24
  %8 = load i64, ptr %5, align 8, !tbaa !7
  %9 = call i32 @rb_stat(i64 noundef %8, ptr noundef %6)
  %10 = icmp slt i32 %9, 0
  br i1 %10, label %11, label %12

11:                                               ; preds = %2
  store i64 0, ptr %3, align 8
  store i32 1, ptr %7, align 4
  br label %13

12:                                               ; preds = %2
  store i64 20, ptr %3, align 8
  store i32 1, ptr %7, align 4
  br label %13

13:                                               ; preds = %12, %11
  call void @llvm.lifetime.end.p0(i64 144, ptr %6) #24
  %14 = load i64, ptr %3, align 8
  ret i64 %14
}

; Function Attrs: inlinehint nounwind sspstrong willreturn memory(none) uwtable
define internal zeroext i1 @RB_NIL_P(i64 noundef %0) #10 {
  %2 = alloca i64, align 8
  store i64 %0, ptr %2, align 8, !tbaa !7
  %3 = load i64, ptr %2, align 8, !tbaa !7
  %4 = icmp eq i64 %3, 4
  ret i1 %4
}

; Function Attrs: inlinehint nounwind sspstrong uwtable
define internal ptr @RSTRING_PTR(i64 noundef %0) #8 {
  %2 = alloca i64, align 8
  %3 = alloca ptr, align 8
  %4 = alloca %struct.RString, align 8
  store i64 %0, ptr %2, align 8, !tbaa !7
  call void @llvm.lifetime.start.p0(i64 8, ptr %3) #24
  %5 = load i64, ptr %2, align 8, !tbaa !7
  call void @rbimpl_rstring_getmem(ptr dead_on_unwind writable sret(%struct.RString) align 8 %4, i64 noundef %5) #29
  %6 = getelementptr inbounds nuw %struct.RString, ptr %4, i32 0, i32 2
  %7 = getelementptr inbounds nuw %struct.anon.1, ptr %6, i32 0, i32 0
  %8 = load ptr, ptr %7, align 8, !tbaa !27
  store ptr %8, ptr %3, align 8, !tbaa !16
  %9 = load ptr, ptr %3, align 8, !tbaa !16
  call void @llvm.lifetime.end.p0(i64 8, ptr %3) #24
  ret ptr %9
}

; Function Attrs: nounwind sspstrong uwtable
define internal i64 @rb_check_realpath_internal(i64 noundef %0, i64 noundef %1, ptr noundef %2, i32 noundef %3) #0 {
  %5 = alloca i64, align 8
  %6 = alloca i64, align 8
  %7 = alloca i64, align 8
  %8 = alloca ptr, align 8
  %9 = alloca i32, align 4
  %10 = alloca i64, align 8
  %11 = alloca ptr, align 8
  %12 = alloca i64, align 8
  %13 = alloca ptr, align 8
  %14 = alloca i32, align 4
  %15 = alloca i32, align 4
  %16 = alloca %struct.stat, align 8
  %17 = alloca i32, align 4
  %18 = alloca ptr, align 8
  %19 = alloca ptr, align 8
  store i64 %0, ptr %6, align 8, !tbaa !7
  store i64 %1, ptr %7, align 8, !tbaa !7
  store ptr %2, ptr %8, align 8, !tbaa !20
  store i32 %3, ptr %9, align 4, !tbaa !11
  call void @llvm.lifetime.start.p0(i64 8, ptr %10) #24
  call void @llvm.lifetime.start.p0(i64 8, ptr %11) #24
  store ptr null, ptr %11, align 8, !tbaa !16
  call void @llvm.lifetime.start.p0(i64 8, ptr %12) #24
  call void @llvm.lifetime.start.p0(i64 8, ptr %13) #24
  store ptr null, ptr %13, align 8, !tbaa !16
  %20 = load i32, ptr %9, align 4, !tbaa !11
  %21 = icmp eq i32 %20, 1
  br i1 %21, label %22, label %28

22:                                               ; preds = %4
  %23 = load i64, ptr %6, align 8, !tbaa !7
  %24 = load i64, ptr %7, align 8, !tbaa !7
  %25 = load ptr, ptr %8, align 8, !tbaa !20
  %26 = load i32, ptr %9, align 4, !tbaa !11
  %27 = call i64 @rb_check_realpath_emulate(i64 noundef %23, i64 noundef %24, ptr noundef %25, i32 noundef %26)
  store i64 %27, ptr %5, align 8
  store i32 1, ptr %14, align 4
  br label %147

28:                                               ; preds = %4
  %29 = load i64, ptr %7, align 8, !tbaa !7
  %30 = call i64 @rb_str_new_frozen(i64 noundef %29)
  store i64 %30, ptr %10, align 8, !tbaa !7
  %31 = load i64, ptr %10, align 8, !tbaa !7
  %32 = call ptr @RSTRING_PTR(i64 noundef %31)
  %33 = load i8, ptr %32, align 1, !tbaa !27
  %34 = sext i8 %33 to i32
  %35 = icmp ne i32 %34, 47
  br i1 %35, label %36, label %44

36:                                               ; preds = %28
  %37 = load i64, ptr %6, align 8, !tbaa !7
  %38 = call zeroext i1 @RB_NIL_P(i64 noundef %37) #27
  br i1 %38, label %44, label %39

39:                                               ; preds = %36
  %40 = load i64, ptr %6, align 8, !tbaa !7
  %41 = load i64, ptr %10, align 8, !tbaa !7
  %42 = call i64 @rb_assoc_new(i64 noundef %40, i64 noundef %41)
  %43 = call i64 @rb_file_join(i64 noundef %42)
  store i64 %43, ptr %10, align 8, !tbaa !7
  br label %44

44:                                               ; preds = %39, %36, %28
  %45 = load ptr, ptr %8, align 8, !tbaa !20
  %46 = icmp ne ptr %45, null
  br i1 %46, label %47, label %49

47:                                               ; preds = %44
  %48 = load i64, ptr %10, align 8, !tbaa !7
  store i64 %48, ptr %10, align 8, !tbaa !7
  br label %49

49:                                               ; preds = %47, %44
  %50 = load i64, ptr %10, align 8, !tbaa !7
  %51 = call ptr @RSTRING_PTR(i64 noundef %50)
  %52 = call ptr @realpath(ptr noundef %51, ptr noundef null) #24
  store ptr %52, ptr %11, align 8, !tbaa !16
  %53 = icmp eq ptr %52, null
  br i1 %53, label %54, label %84

54:                                               ; preds = %49
  %55 = call ptr @rb_errno_ptr()
  %56 = load i32, ptr %55, align 4, !tbaa !11
  %57 = icmp eq i32 %56, 20
  br i1 %57, label %66, label %58

58:                                               ; preds = %54
  %59 = call ptr @rb_errno_ptr()
  %60 = load i32, ptr %59, align 4, !tbaa !11
  %61 = icmp eq i32 %60, 2
  br i1 %61, label %62, label %72

62:                                               ; preds = %58
  %63 = load i64, ptr %10, align 8, !tbaa !7
  %64 = call i64 @rb_file_exist_p(i64 noundef 0, i64 noundef %63)
  %65 = icmp ne i64 %64, 0
  br i1 %65, label %66, label %72

66:                                               ; preds = %62, %54
  %67 = load i64, ptr %6, align 8, !tbaa !7
  %68 = load i64, ptr %7, align 8, !tbaa !7
  %69 = load ptr, ptr %8, align 8, !tbaa !20
  %70 = load i32, ptr %9, align 4, !tbaa !11
  %71 = call i64 @rb_check_realpath_emulate(i64 noundef %67, i64 noundef %68, ptr noundef %69, i32 noundef %70)
  store i64 %71, ptr %5, align 8
  store i32 1, ptr %14, align 4
  br label %147

72:                                               ; preds = %62, %58
  %73 = load i32, ptr %9, align 4, !tbaa !11
  %74 = icmp eq i32 %73, 0
  br i1 %74, label %75, label %76

75:                                               ; preds = %72
  store i64 4, ptr %5, align 8
  store i32 1, ptr %14, align 4
  br label %147

76:                                               ; preds = %72
  br label %77

77:                                               ; preds = %76
  call void @llvm.lifetime.start.p0(i64 4, ptr %15) #24
  %78 = call ptr @rb_errno_ptr()
  %79 = load i32, ptr %78, align 4, !tbaa !11
  store i32 %79, ptr %15, align 4, !tbaa !11
  %80 = load i32, ptr %15, align 4, !tbaa !11
  %81 = load i64, ptr %10, align 8, !tbaa !7
  call void @rb_syserr_fail_path_in(ptr noundef @__func__.rb_check_realpath_internal, i32 noundef %80, i64 noundef %81) #28
  unreachable

82:                                               ; No predecessors!
  br label %83

83:                                               ; preds = %82
  br label %84

84:                                               ; preds = %83, %49
  %85 = load ptr, ptr %11, align 8, !tbaa !16
  %86 = load ptr, ptr %11, align 8, !tbaa !16
  %87 = call i64 @strlen(ptr noundef %86) #25
  %88 = call ptr @rb_filesystem_encoding()
  %89 = call i64 @ospath_new(ptr noundef %85, i64 noundef %87, ptr noundef %88)
  store i64 %89, ptr %12, align 8, !tbaa !7
  %90 = load ptr, ptr %11, align 8, !tbaa !16
  call void @free(ptr noundef %90) #24
  call void @llvm.lifetime.start.p0(i64 144, ptr %16) #24
  %91 = load i64, ptr %12, align 8, !tbaa !7
  %92 = call ptr @RSTRING_PTR(i64 noundef %91)
  %93 = call i32 @stat_without_gvl(ptr noundef %92, ptr noundef %16)
  %94 = icmp slt i32 %93, 0
  br i1 %94, label %95, label %107

95:                                               ; preds = %84
  %96 = load i32, ptr %9, align 4, !tbaa !11
  %97 = icmp eq i32 %96, 0
  br i1 %97, label %98, label %99

98:                                               ; preds = %95
  store i64 4, ptr %5, align 8
  store i32 1, ptr %14, align 4
  br label %146

99:                                               ; preds = %95
  br label %100

100:                                              ; preds = %99
  call void @llvm.lifetime.start.p0(i64 4, ptr %17) #24
  %101 = call ptr @rb_errno_ptr()
  %102 = load i32, ptr %101, align 4, !tbaa !11
  store i32 %102, ptr %17, align 4, !tbaa !11
  %103 = load i32, ptr %17, align 4, !tbaa !11
  %104 = load i64, ptr %10, align 8, !tbaa !7
  call void @rb_syserr_fail_path_in(ptr noundef @__func__.rb_check_realpath_internal, i32 noundef %103, i64 noundef %104) #28
  unreachable

105:                                              ; No predecessors!
  br label %106

106:                                              ; preds = %105
  br label %107

107:                                              ; preds = %106, %84
  %108 = load ptr, ptr %8, align 8, !tbaa !20
  %109 = icmp ne ptr %108, null
  br i1 %109, label %110, label %127

110:                                              ; preds = %107
  %111 = load ptr, ptr %8, align 8, !tbaa !20
  %112 = load i64, ptr %12, align 8, !tbaa !7
  %113 = call ptr @rb_enc_get(i64 noundef %112)
  %114 = icmp ne ptr %111, %113
  br i1 %114, label %115, label %127

115:                                              ; preds = %110
  %116 = load i64, ptr %12, align 8, !tbaa !7
  %117 = call i32 @rb_enc_str_asciionly_p(i64 noundef %116)
  %118 = icmp ne i32 %117, 0
  br i1 %118, label %123, label %119

119:                                              ; preds = %115
  %120 = load i64, ptr %12, align 8, !tbaa !7
  %121 = load ptr, ptr %8, align 8, !tbaa !20
  %122 = call i64 @rb_str_conv_enc(i64 noundef %120, ptr noundef null, ptr noundef %121)
  store i64 %122, ptr %12, align 8, !tbaa !7
  br label %123

123:                                              ; preds = %119, %115
  %124 = load i64, ptr %12, align 8, !tbaa !7
  %125 = load ptr, ptr %8, align 8, !tbaa !20
  %126 = call i64 @rb_enc_associate(i64 noundef %124, ptr noundef %125)
  br label %127

127:                                              ; preds = %123, %110, %107
  %128 = load i64, ptr %12, align 8, !tbaa !7
  %129 = call zeroext i1 @is_broken_string(i64 noundef %128)
  br i1 %129, label %130, label %141

130:                                              ; preds = %127
  %131 = load i64, ptr %12, align 8, !tbaa !7
  %132 = call ptr @rb_filesystem_encoding()
  %133 = call i64 @rb_enc_associate(i64 noundef %131, ptr noundef %132)
  %134 = load i64, ptr %12, align 8, !tbaa !7
  %135 = call zeroext i1 @is_broken_string(i64 noundef %134)
  br i1 %135, label %136, label %140

136:                                              ; preds = %130
  %137 = load i64, ptr %12, align 8, !tbaa !7
  %138 = call nonnull ptr @rb_ascii8bit_encoding()
  %139 = call i64 @rb_enc_associate(i64 noundef %137, ptr noundef %138)
  br label %140

140:                                              ; preds = %136, %130
  br label %141

141:                                              ; preds = %140, %127
  call void @llvm.lifetime.start.p0(i64 8, ptr %18) #24
  store ptr %10, ptr %18, align 8, !tbaa !13
  call void asm sideeffect "", "*m,~{dirflag},~{fpsr},~{flags}"(ptr elementtype(ptr) %18) #24, !srcloc !88
  %142 = load ptr, ptr %18, align 8, !tbaa !13
  store ptr %142, ptr %19, align 8, !tbaa !13
  call void @llvm.lifetime.end.p0(i64 8, ptr %18) #24
  %143 = load ptr, ptr %19, align 8, !tbaa !13
  %144 = load volatile i64, ptr %143, align 8, !tbaa !7
  %145 = load i64, ptr %12, align 8, !tbaa !7
  store i64 %145, ptr %5, align 8
  store i32 1, ptr %14, align 4
  br label %146

146:                                              ; preds = %141, %98
  call void @llvm.lifetime.end.p0(i64 144, ptr %16) #24
  br label %147

147:                                              ; preds = %146, %75, %66, %22
  call void @llvm.lifetime.end.p0(i64 8, ptr %13) #24
  call void @llvm.lifetime.end.p0(i64 8, ptr %12) #24
  call void @llvm.lifetime.end.p0(i64 8, ptr %11) #24
  call void @llvm.lifetime.end.p0(i64 8, ptr %10) #24
  %148 = load i64, ptr %5, align 8
  ret i64 %148
}