; Function Attrs: nounwind sspstrong uwtable
define internal fastcc i64 @rb_check_realpath_internal(i64 noundef %0, i64 noundef %1, ptr noundef %2, i32 noundef range(i32 0, 3) %3) unnamed_addr #0 {
  %5 = alloca %struct.no_gvl_stat_data, align 8
  %6 = alloca %struct.stat, align 8
  %7 = alloca i64, align 8
  %8 = alloca %struct.stat, align 8
  %9 = alloca ptr, align 8
  call void @llvm.lifetime.start.p0(i64 8, ptr nonnull %7) #22
  %10 = icmp eq i32 %3, 1
  br i1 %10, label %11, label %13

11:                                               ; preds = %4
  %12 = tail call fastcc i64 @rb_check_realpath_emulate(i64 noundef %0, i64 noundef %1, ptr noundef %2, i32 noundef 1)
  br label %92

13:                                               ; preds = %4
  %14 = tail call i64 @rb_str_new_frozen(i64 noundef %1) #22
  store i64 %14, ptr %7, align 8, !tbaa !12
  %15 = inttoptr i64 %14 to ptr
  %16 = load i64, ptr %15, align 8, !tbaa !7, !noalias !156
  %17 = and i64 %16, 8192
  %.not.i.i = icmp eq i64 %17, 0
  %18 = getelementptr inbounds nuw i8, ptr %15, i64 24
  br i1 %.not.i.i, label %RSTRING_PTR.exit, label %19

19:                                               ; preds = %13
  %.sroa.2.0.copyload.i = load ptr, ptr %18, align 8
  br label %RSTRING_PTR.exit

RSTRING_PTR.exit:                                 ; preds = %13, %19
  %.sroa.2.0.i = phi ptr [ %.sroa.2.0.copyload.i, %19 ], [ %18, %13 ]
  %20 = load i8, ptr %.sroa.2.0.i, align 1, !tbaa !27
  %.not = icmp eq i8 %20, 47
  %21 = icmp eq i64 %0, 4
  %or.cond = or i1 %21, %.not
  br i1 %or.cond, label %25, label %22

22:                                               ; preds = %RSTRING_PTR.exit
  %23 = tail call i64 @rb_assoc_new(i64 noundef %0, i64 noundef %14) #22
  %24 = tail call fastcc i64 @rb_file_join(i64 noundef %23)
  store i64 %24, ptr %7, align 8, !tbaa !12
  %.phi.trans.insert = inttoptr i64 %24 to ptr
  %.pre = load i64, ptr %.phi.trans.insert, align 8, !tbaa !7, !noalias !159
  %.pre54 = and i64 %.pre, 8192
  br label %25

25:                                               ; preds = %22, %RSTRING_PTR.exit
  %.pre-phi55 = phi i64 [ %.pre54, %22 ], [ %17, %RSTRING_PTR.exit ]
  %.pre-phi = phi ptr [ %.phi.trans.insert, %22 ], [ %15, %RSTRING_PTR.exit ]
  %26 = phi i64 [ %24, %22 ], [ %14, %RSTRING_PTR.exit ]
  %.not41 = icmp eq ptr %2, null
  %.not.i.i45 = icmp eq i64 %.pre-phi55, 0
  %27 = getelementptr inbounds nuw i8, ptr %.pre-phi, i64 24
  br i1 %.not.i.i45, label %RSTRING_PTR.exit48, label %28

28:                                               ; preds = %25
  %.sroa.2.0.copyload.i46 = load ptr, ptr %27, align 8
  br label %RSTRING_PTR.exit48

RSTRING_PTR.exit48:                               ; preds = %25, %28
  %.sroa.2.0.i47 = phi ptr [ %.sroa.2.0.copyload.i46, %28 ], [ %27, %25 ]
  %29 = tail call ptr @realpath(ptr noundef %.sroa.2.0.i47, ptr noundef null) #22
  %30 = icmp eq ptr %29, null
  br i1 %30, label %31, label %49

31:                                               ; preds = %RSTRING_PTR.exit48
  %32 = tail call ptr @rb_errno_ptr() #22
  %33 = load i32, ptr %32, align 4, !tbaa !26
  %34 = icmp eq i32 %33, 20
  br i1 %34, label %42, label %35

35:                                               ; preds = %31
  %36 = tail call ptr @rb_errno_ptr() #22
  %37 = load i32, ptr %36, align 4, !tbaa !26
  %38 = icmp eq i32 %37, 2
  br i1 %38, label %39, label %44

39:                                               ; preds = %35
  call void @llvm.lifetime.start.p0(i64 144, ptr nonnull %6) #22
  %40 = call fastcc i32 @rb_stat(i64 noundef %26, ptr noundef %6)
  %41 = icmp slt i32 %40, 0
  call void @llvm.lifetime.end.p0(i64 144, ptr nonnull %6) #22
  br i1 %41, label %44, label %42

42:                                               ; preds = %39, %31
  %43 = call fastcc i64 @rb_check_realpath_emulate(i64 noundef %0, i64 noundef %1, ptr noundef %2, i32 noundef %3)
  br label %92

44:                                               ; preds = %39, %35
  %45 = icmp eq i32 %3, 0
  br i1 %45, label %92, label %46

46:                                               ; preds = %44
  %47 = call ptr @rb_errno_ptr() #22
  %48 = load i32, ptr %47, align 4, !tbaa !26
  call void @rb_syserr_fail_path_in(ptr noundef nonnull @__func__.rb_check_realpath_internal, i32 noundef %48, i64 noundef %26) #24
  unreachable

49:                                               ; preds = %RSTRING_PTR.exit48
  %50 = tail call i64 @strlen(ptr noundef nonnull dereferenceable(1) %29) #23
  %51 = tail call ptr @rb_filesystem_encoding() #22
  %52 = tail call i64 @rb_enc_str_new(ptr noundef nonnull %29, i64 noundef %50, ptr noundef %51) #22
  tail call void @free(ptr noundef nonnull %29) #22
  call void @llvm.lifetime.start.p0(i64 144, ptr nonnull %8) #22
  %53 = inttoptr i64 %52 to ptr
  %54 = load i64, ptr %53, align 8, !tbaa !7, !noalias !162
  %55 = and i64 %54, 8192
  %.not.i.i49 = icmp eq i64 %55, 0
  %56 = getelementptr inbounds nuw i8, ptr %53, i64 24
  br i1 %.not.i.i49, label %RSTRING_PTR.exit52, label %57

57:                                               ; preds = %49
  %.sroa.2.0.copyload.i50 = load ptr, ptr %56, align 8
  br label %RSTRING_PTR.exit52

RSTRING_PTR.exit52:                               ; preds = %49, %57
  %.sroa.2.0.i51 = phi ptr [ %.sroa.2.0.copyload.i50, %57 ], [ %56, %49 ]
  call void @llvm.lifetime.start.p0(i64 16, ptr nonnull %5) #22
  %58 = getelementptr inbounds nuw i8, ptr %5, i64 8
  store ptr %.sroa.2.0.i51, ptr %58, align 8, !tbaa !27
  store ptr %8, ptr %5, align 8, !tbaa !43
  %59 = call ptr @rb_nogvl(ptr noundef nonnull @no_gvl_stat, ptr noundef nonnull %5, ptr noundef nonnull inttoptr (i64 -1 to ptr), ptr noundef null, i32 noundef 4) #22
  %60 = ptrtoint ptr %59 to i64
  call void @llvm.lifetime.end.p0(i64 16, ptr nonnull %5) #22
  %61 = and i64 %60, 2147483648
  %.not53 = icmp eq i64 %61, 0
  br i1 %.not53, label %68, label %62

62:                                               ; preds = %RSTRING_PTR.exit52
  %63 = icmp eq i32 %3, 0
  br i1 %63, label %91, label %64

64:                                               ; preds = %62
  %65 = call ptr @rb_errno_ptr() #22
  %66 = load i32, ptr %65, align 4, !tbaa !26
  %67 = load i64, ptr %7, align 8, !tbaa !12
  call void @rb_syserr_fail_path_in(ptr noundef nonnull @__func__.rb_check_realpath_internal, i32 noundef %66, i64 noundef %67) #24
  unreachable

68:                                               ; preds = %RSTRING_PTR.exit52
  br i1 %.not41, label %77, label %69

69:                                               ; preds = %68
  %70 = call ptr @rb_enc_get(i64 noundef %52) #22
  %.not42 = icmp eq ptr %2, %70
  br i1 %.not42, label %77, label %71

71:                                               ; preds = %69
  %72 = call i32 @rb_enc_str_asciionly_p(i64 noundef %52) #22
  %.not43 = icmp eq i32 %72, 0
  br i1 %.not43, label %73, label %75

73:                                               ; preds = %71
  %74 = call i64 @rb_str_conv_enc(i64 noundef %52, ptr noundef null, ptr noundef nonnull %2) #22
  br label %75

75:                                               ; preds = %73, %71
  %.136 = phi i64 [ %52, %71 ], [ %74, %73 ]
  %76 = call i64 @rb_enc_associate(i64 noundef %.136, ptr noundef nonnull %2) #22
  br label %77

77:                                               ; preds = %75, %69, %68
  %.035 = phi i64 [ %.136, %75 ], [ %52, %69 ], [ %52, %68 ]
  %78 = call i32 @rb_enc_str_coderange(i64 noundef %.035) #22
  %79 = icmp eq i32 %78, 3145728
  br i1 %79, label %80, label %88

80:                                               ; preds = %77
  %81 = call ptr @rb_filesystem_encoding() #22
  %82 = call i64 @rb_enc_associate(i64 noundef %.035, ptr noundef %81) #22
  %83 = call i32 @rb_enc_str_coderange(i64 noundef %.035) #22
  %84 = icmp eq i32 %83, 3145728
  br i1 %84, label %85, label %88

85:                                               ; preds = %80
  %86 = call nonnull ptr @rb_ascii8bit_encoding() #22
  %87 = call i64 @rb_enc_associate(i64 noundef %.035, ptr noundef nonnull %86) #22
  br label %88

88:                                               ; preds = %80, %85, %77
  call void @llvm.lifetime.start.p0(i64 8, ptr nonnull %9) #22
  store ptr %7, ptr %9, align 8, !tbaa !46
  call void asm sideeffect "", "*m,~{dirflag},~{fpsr},~{flags}"(ptr nonnull elementtype(ptr) %9) #22, !srcloc !165
  %89 = load ptr, ptr %9, align 8, !tbaa !46
  call void @llvm.lifetime.end.p0(i64 8, ptr nonnull %9) #22
  %90 = load volatile i64, ptr %89, align 8, !tbaa !12
  br label %91

91:                                               ; preds = %62, %88
  %.1 = phi i64 [ %.035, %88 ], [ 4, %62 ]
  call void @llvm.lifetime.end.p0(i64 144, ptr nonnull %8) #22
  br label %92

92:                                               ; preds = %44, %91, %42, %11
  %.0 = phi i64 [ %12, %11 ], [ %43, %42 ], [ %.1, %91 ], [ 4, %44 ]
  call void @llvm.lifetime.end.p0(i64 8, ptr nonnull %7) #22
  ret i64 %.0
}